
kmeshfilter_bpfel.o:	file format elf64-bpf


Disassembly of section sockops/KMESH_TAIL_CALL_FILTER:

0000000000000000 <filter_manager>:
       0:	b7 08 00 00 00 00 00 00	r8 = 0
       1:	63 8a 78 fe 00 00 00 00	*(u32 *)(r10 - 392) = r8
       2:	7b 8a 70 fe 00 00 00 00	*(u64 *)(r10 - 400) = r8
       3:	7b 8a 68 fe 00 00 00 00	*(u64 *)(r10 - 408) = r8
       4:	7b 8a 60 fe 00 00 00 00	*(u64 *)(r10 - 416) = r8
       5:	61 19 40 00 00 00 00 00	r9 = *(u32 *)(r1 + 64)
       6:	7b 1a 58 fe 00 00 00 00	*(u64 *)(r10 - 424) = r1
       7:	61 16 18 00 00 00 00 00	r6 = *(u32 *)(r1 + 24)
       8:	63 8a a0 fe 00 00 00 00	*(u32 *)(r10 - 352) = r8
       9:	7b 8a 98 fe 00 00 00 00	*(u64 *)(r10 - 360) = r8
      10:	7a 0a 88 fe 00 00 00 00	<unknown>
      11:	7a 0a 90 fe 00 00 00 00	<unknown>
      12:	7b 6a a8 fe 00 00 00 00	*(u64 *)(r10 - 344) = r6
      13:	63 9a a4 fe 00 00 00 00	*(u32 *)(r10 - 348) = r9
      14:	05 00 00 00 00 00 00 00	goto +0 <filter_manager+0x78>
      15:	85 00 00 00 23 00 00 00	call 35
      16:	07 00 00 00 03 00 00 00	r0 += 3
      17:	7b 0a 80 fe 00 00 00 00	*(u64 *)(r10 - 384) = r0
      18:	bf a2 00 00 00 00 00 00	r2 = r10
      19:	07 02 00 00 80 fe ff ff	r2 += -384
      20:	18 01 00 00 00 00 00 00 00 00 00 00 00 00 00 00	r1 = 0 ll
      22:	85 00 00 00 01 00 00 00	call 1
      23:	bf 07 00 00 00 00 00 00	r7 = r0
      24:	55 07 04 00 00 00 00 00	if r7 != 0 goto +4 <LBB0_2>
      25:	18 01 00 00 00 00 00 00 00 00 00 00 00 00 00 00	r1 = 0 ll
      27:	b7 02 00 00 2e 00 00 00	r2 = 46
      28:	05 00 14 00 00 00 00 00	goto +20 <LBB0_8>

00000000000000e8 <LBB0_2>:
      29:	79 71 00 00 00 00 00 00	r1 = *(u64 *)(r7 + 0)
      30:	63 8a d0 ff 00 00 00 00	*(u32 *)(r10 - 48) = r8
      31:	7b 1a e0 fe 00 00 00 00	*(u64 *)(r10 - 288) = r1
      32:	15 01 06 00 00 00 00 00	if r1 == 0 goto +6 <LBB0_4>
      33:	bf a2 00 00 00 00 00 00	r2 = r10
      34:	07 02 00 00 e0 fe ff ff	r2 += -288
      35:	18 01 00 00 00 00 00 00 00 00 00 00 00 00 00 00	r1 = 0 ll
      37:	85 00 00 00 01 00 00 00	call 1
      38:	55 00 01 00 00 00 00 00	if r0 != 0 goto +1 <LBB0_5>

0000000000000138 <LBB0_4>:
      39:	05 00 06 00 00 00 00 00	goto +6 <LBB0_6>

0000000000000140 <LBB0_5>:
      40:	bf a2 00 00 00 00 00 00	r2 = r10
      41:	07 02 00 00 d0 ff ff ff	r2 += -48
      42:	bf 01 00 00 00 00 00 00	r1 = r0
      43:	85 00 00 00 01 00 00 00	call 1
      44:	bf 08 00 00 00 00 00 00	r8 = r0
      45:	55 08 06 00 00 00 00 00	if r8 != 0 goto +6 <LBB0_10>

0000000000000170 <LBB0_6>:
      46:	18 01 00 00 2e 00 00 00 00 00 00 00 00 00 00 00	r1 = 46 ll

0000000000000180 <LBB0_7>:
      48:	b7 02 00 00 24 00 00 00	r2 = 36

0000000000000188 <LBB0_8>:
      49:	85 00 00 00 06 00 00 00	call 6

0000000000000190 <LBB0_9>:
      50:	05 00 00 00 00 00 00 00	goto +0 <LBB0_9+0x8>
      51:	95 00 00 00 00 00 00 00	exit

00000000000001a0 <LBB0_10>:
      52:	bf a2 00 00 00 00 00 00	r2 = r10
      53:	07 02 00 00 80 fe ff ff	r2 += -384
      54:	18 01 00 00 00 00 00 00 00 00 00 00 00 00 00 00	r1 = 0 ll
      56:	85 00 00 00 03 00 00 00	call 3
      57:	61 81 20 00 00 00 00 00	r1 = *(u32 *)(r8 + 32)
      58:	15 01 81 00 02 00 00 00	if r1 == 2 goto +129 <LBB0_18>
      59:	55 01 f6 ff 03 00 00 00	if r1 != 3 goto -10 <LBB0_9>
      60:	79 81 28 00 00 00 00 00	r1 = *(u64 *)(r8 + 40)
      61:	b7 08 00 00 00 00 00 00	r8 = 0
      62:	63 8a d0 ff 00 00 00 00	*(u32 *)(r10 - 48) = r8
      63:	7b 1a e0 fe 00 00 00 00	*(u64 *)(r10 - 288) = r1
      64:	15 01 0b 00 00 00 00 00	if r1 == 0 goto +11 <LBB0_15>
      65:	bf a2 00 00 00 00 00 00	r2 = r10
      66:	07 02 00 00 e0 fe ff ff	r2 += -288
      67:	18 01 00 00 00 00 00 00 00 00 00 00 00 00 00 00	r1 = 0 ll
      69:	85 00 00 00 01 00 00 00	call 1
      70:	15 00 05 00 00 00 00 00	if r0 == 0 goto +5 <LBB0_15>
      71:	bf a2 00 00 00 00 00 00	r2 = r10
      72:	07 02 00 00 d0 ff ff ff	r2 += -48
      73:	bf 01 00 00 00 00 00 00	r1 = r0
      74:	85 00 00 00 01 00 00 00	call 1
      75:	bf 08 00 00 00 00 00 00	r8 = r0

0000000000000260 <LBB0_15>:
      76:	79 71 e8 00 00 00 00 00	r1 = *(u64 *)(r7 + 232)
      77:	85 00 00 00 af 00 00 00	call 175
      78:	57 00 00 00 ff 00 00 00	r0 &= 255
      79:	55 00 e2 ff 01 00 00 00	if r0 != 1 goto -30 <LBB0_9>
      80:	55 08 03 00 00 00 00 00	if r8 != 0 goto +3 <LBB0_23>
      81:	18 01 00 00 52 00 00 00 00 00 00 00 00 00 00 00	r1 = 82 ll
      83:	05 00 dc ff 00 00 00 00	goto -36 <LBB0_7>

00000000000002a0 <LBB0_23>:
      84:	79 77 e8 00 00 00 00 00	r7 = *(u64 *)(r7 + 232)
      85:	b7 01 00 00 00 00 00 00	r1 = 0
      86:	7b 1a f8 ff 00 00 00 00	*(u64 *)(r10 - 8) = r1
      87:	7b 1a f0 ff 00 00 00 00	*(u64 *)(r10 - 16) = r1
      88:	7b 1a e8 ff 00 00 00 00	*(u64 *)(r10 - 24) = r1
      89:	7b 1a e0 ff 00 00 00 00	*(u64 *)(r10 - 32) = r1
      90:	7b 1a d8 ff 00 00 00 00	*(u64 *)(r10 - 40) = r1
      91:	7b 1a d0 ff 00 00 00 00	*(u64 *)(r10 - 48) = r1
      92:	7b 1a c8 ff 00 00 00 00	*(u64 *)(r10 - 56) = r1
      93:	7b 1a c0 ff 00 00 00 00	*(u64 *)(r10 - 64) = r1
      94:	7b 1a b8 ff 00 00 00 00	*(u64 *)(r10 - 72) = r1
      95:	7b 1a b0 ff 00 00 00 00	*(u64 *)(r10 - 80) = r1
      96:	7b 1a a8 ff 00 00 00 00	*(u64 *)(r10 - 88) = r1
      97:	7b 1a a0 ff 00 00 00 00	*(u64 *)(r10 - 96) = r1
      98:	7b 1a 98 ff 00 00 00 00	*(u64 *)(r10 - 104) = r1
      99:	7b 1a 90 ff 00 00 00 00	*(u64 *)(r10 - 112) = r1
     100:	7b 1a 88 ff 00 00 00 00	*(u64 *)(r10 - 120) = r1
     101:	7b 1a 80 ff 00 00 00 00	*(u64 *)(r10 - 128) = r1
     102:	7b 1a 78 ff 00 00 00 00	*(u64 *)(r10 - 136) = r1
     103:	7b 1a 70 ff 00 00 00 00	*(u64 *)(r10 - 144) = r1
     104:	7b 1a 68 ff 00 00 00 00	*(u64 *)(r10 - 152) = r1
     105:	7b 1a 60 ff 00 00 00 00	*(u64 *)(r10 - 160) = r1
     106:	7b 1a 58 ff 00 00 00 00	*(u64 *)(r10 - 168) = r1
     107:	7b 1a 50 ff 00 00 00 00	*(u64 *)(r10 - 176) = r1
     108:	7b 1a 48 ff 00 00 00 00	*(u64 *)(r10 - 184) = r1
     109:	7b 1a 40 ff 00 00 00 00	*(u64 *)(r10 - 192) = r1
     110:	7b 1a 38 ff 00 00 00 00	*(u64 *)(r10 - 200) = r1
     111:	7b 1a 30 ff 00 00 00 00	*(u64 *)(r10 - 208) = r1
     112:	7b 1a 28 ff 00 00 00 00	*(u64 *)(r10 - 216) = r1
     113:	7b 1a 20 ff 00 00 00 00	*(u64 *)(r10 - 224) = r1
     114:	7b 1a 18 ff 00 00 00 00	*(u64 *)(r10 - 232) = r1
     115:	7b 1a 10 ff 00 00 00 00	*(u64 *)(r10 - 240) = r1
     116:	7b 1a 08 ff 00 00 00 00	*(u64 *)(r10 - 248) = r1
     117:	7b 1a 00 ff 00 00 00 00	*(u64 *)(r10 - 256) = r1
     118:	7b 1a f8 fe 00 00 00 00	*(u64 *)(r10 - 264) = r1
     119:	7b 1a f0 fe 00 00 00 00	*(u64 *)(r10 - 272) = r1
     120:	7b 1a e8 fe 00 00 00 00	*(u64 *)(r10 - 280) = r1
     121:	7b 1a e0 fe 00 00 00 00	*(u64 *)(r10 - 288) = r1
     122:	79 82 20 00 00 00 00 00	r2 = *(u64 *)(r8 + 32)
     123:	63 1a d0 fe 00 00 00 00	*(u32 *)(r10 - 304) = r1
     124:	7b 2a b0 fe 00 00 00 00	*(u64 *)(r10 - 336) = r2
     125:	15 02 06 00 00 00 00 00	if r2 == 0 goto +6 <LBB0_25>
     126:	bf a2 00 00 00 00 00 00	r2 = r10
     127:	07 02 00 00 b0 fe ff ff	r2 += -336
     128:	18 01 00 00 00 00 00 00 00 00 00 00 00 00 00 00	r1 = 0 ll
     130:	85 00 00 00 01 00 00 00	call 1
     131:	55 00 01 00 00 00 00 00	if r0 != 0 goto +1 <LBB0_30>

0000000000000420 <LBB0_25>:
     132:	05 00 07 00 00 00 00 00	goto +7 <LBB0_31>

0000000000000428 <LBB0_30>:
     133:	bf 78 00 00 00 00 00 00	r8 = r7
     134:	bf a2 00 00 00 00 00 00	r2 = r10
     135:	07 02 00 00 d0 fe ff ff	r2 += -304
     136:	bf 01 00 00 00 00 00 00	r1 = r0
     137:	85 00 00 00 01 00 00 00	call 1
     138:	bf 07 00 00 00 00 00 00	r7 = r0
     139:	55 07 04 00 00 00 00 00	if r7 != 0 goto +4 <LBB0_32>

0000000000000460 <LBB0_31>:
     140:	18 01 00 00 29 01 00 00 00 00 00 00 00 00 00 00	r1 = 297 ll
     142:	b7 02 00 00 32 00 00 00	r2 = 50
     143:	05 00 a1 ff 00 00 00 00	goto -95 <LBB0_8>

0000000000000480 <LBB0_32>:
     144:	bf a1 00 00 00 00 00 00	r1 = r10
     145:	07 01 00 00 e0 fe ff ff	r1 += -288
     146:	b7 02 00 00 e2 00 00 00	r2 = 226
     147:	bf 73 00 00 00 00 00 00	r3 = r7
     148:	85 00 00 00 ab 00 00 00	call 171
     149:	55 00 06 00 00 00 00 00	if r0 != 0 goto +6 <LBB0_38>
     150:	18 01 00 00 5b 01 00 00 00 00 00 00 00 00 00 00	r1 = 347 ll
     152:	b7 02 00 00 38 00 00 00	r2 = 56
     153:	bf 73 00 00 00 00 00 00	r3 = r7
     154:	85 00 00 00 06 00 00 00	call 6
     155:	05 00 96 ff 00 00 00 00	goto -106 <LBB0_9>

00000000000004e0 <LBB0_38>:
     156:	61 a1 78 fe 00 00 00 00	r1 = *(u32 *)(r10 - 392)
     157:	63 1a f0 ff 00 00 00 00	*(u32 *)(r10 - 16) = r1
     158:	79 a1 70 fe 00 00 00 00	r1 = *(u64 *)(r10 - 400)
     159:	7b 1a e8 ff 00 00 00 00	*(u64 *)(r10 - 24) = r1
     160:	79 a1 68 fe 00 00 00 00	r1 = *(u64 *)(r10 - 408)
     161:	7b 1a e0 ff 00 00 00 00	*(u64 *)(r10 - 32) = r1
     162:	79 a1 60 fe 00 00 00 00	r1 = *(u64 *)(r10 - 416)
     163:	7b 1a d8 ff 00 00 00 00	*(u64 *)(r10 - 40) = r1
     164:	62 0a fc ff 00 00 00 00	<unknown>
     165:	63 6a f8 ff 00 00 00 00	*(u32 *)(r10 - 8) = r6
     166:	63 9a f4 ff 00 00 00 00	*(u32 *)(r10 - 12) = r9
     167:	05 00 00 00 00 00 00 00	goto +0 <LBB0_38+0x60>
     168:	85 00 00 00 23 00 00 00	call 35
     169:	7b 8a c8 ff 00 00 00 00	*(u64 *)(r10 - 56) = r8
     170:	07 00 00 00 06 00 00 00	r0 += 6
     171:	7b 0a d0 ff 00 00 00 00	*(u64 *)(r10 - 48) = r0
     172:	bf a2 00 00 00 00 00 00	r2 = r10
     173:	07 02 00 00 d0 ff ff ff	r2 += -48
     174:	bf a3 00 00 00 00 00 00	r3 = r10
     175:	07 03 00 00 e0 fe ff ff	r3 += -288
     176:	18 01 00 00 00 00 00 00 00 00 00 00 00 00 00 00	r1 = 0 ll
     178:	b7 04 00 00 00 00 00 00	r4 = 0
     179:	85 00 00 00 02 00 00 00	call 2
     180:	67 00 00 00 20 00 00 00	r0 <<= 32
     181:	77 00 00 00 20 00 00 00	r0 >>= 32
     182:	55 00 7b ff 00 00 00 00	if r0 != 0 goto -133 <LBB0_9>
     183:	05 00 00 00 00 00 00 00	goto +0 <LBB0_38+0xe0>
     184:	18 02 00 00 00 00 00 00 00 00 00 00 00 00 00 00	r2 = 0 ll
     186:	05 00 00 00 00 00 00 00	goto +0 <LBB0_38+0xf8>
     187:	05 00 d7 00 00 00 00 00	goto +215 <LBB0_59>

00000000000005e0 <LBB0_18>:
     188:	62 0a d0 ff 00 00 00 00	<unknown>
     189:	79 81 28 00 00 00 00 00	r1 = *(u64 *)(r8 + 40)
     190:	7b 1a e0 fe 00 00 00 00	*(u64 *)(r10 - 288) = r1
     191:	05 00 00 00 00 00 00 00	goto +0 <LBB0_18+0x20>
     192:	15 01 06 00 00 00 00 00	if r1 == 0 goto +6 <LBB0_20>
     193:	bf a2 00 00 00 00 00 00	r2 = r10
     194:	07 02 00 00 e0 fe ff ff	r2 += -288
     195:	18 01 00 00 00 00 00 00 00 00 00 00 00 00 00 00	r1 = 0 ll
     197:	85 00 00 00 01 00 00 00	call 1
     198:	55 00 03 00 00 00 00 00	if r0 != 0 goto +3 <LBB0_21>

0000000000000638 <LBB0_20>:
     199:	18 01 00 00 76 00 00 00 00 00 00 00 00 00 00 00	r1 = 118 ll
     201:	05 00 66 ff 00 00 00 00	goto -154 <LBB0_7>

0000000000000650 <LBB0_21>:
     202:	bf a2 00 00 00 00 00 00	r2 = r10
     203:	07 02 00 00 d0 ff ff ff	r2 += -48
     204:	bf 01 00 00 00 00 00 00	r1 = r0
     205:	85 00 00 00 01 00 00 00	call 1
     206:	55 00 01 00 00 00 00 00	if r0 != 0 goto +1 <LBB0_26>
     207:	05 00 f7 ff 00 00 00 00	goto -9 <LBB0_20>

0000000000000680 <LBB0_26>:
     208:	b7 07 00 00 00 00 00 00	r7 = 0
     209:	63 7a c8 fe 00 00 00 00	*(u32 *)(r10 - 312) = r7
     210:	7b 7a c0 fe 00 00 00 00	*(u64 *)(r10 - 320) = r7
     211:	7b 7a b8 fe 00 00 00 00	*(u64 *)(r10 - 328) = r7
     212:	7b 7a b0 fe 00 00 00 00	*(u64 *)(r10 - 336) = r7
     213:	79 a1 58 fe 00 00 00 00	r1 = *(u64 *)(r10 - 424)
     214:	61 12 40 00 00 00 00 00	r2 = *(u32 *)(r1 + 64)
     215:	7b 2a 50 fe 00 00 00 00	*(u64 *)(r10 - 432) = r2
     216:	61 11 18 00 00 00 00 00	r1 = *(u32 *)(r1 + 24)
     217:	7b 1a 48 fe 00 00 00 00	*(u64 *)(r10 - 440) = r1
     218:	7b 7a f8 ff 00 00 00 00	*(u64 *)(r10 - 8) = r7
     219:	7b 7a f0 ff 00 00 00 00	*(u64 *)(r10 - 16) = r7
     220:	7b 7a e8 ff 00 00 00 00	*(u64 *)(r10 - 24) = r7
     221:	7b 7a e0 ff 00 00 00 00	*(u64 *)(r10 - 32) = r7
     222:	7b 7a d8 ff 00 00 00 00	*(u64 *)(r10 - 40) = r7
     223:	7b 7a d0 ff 00 00 00 00	*(u64 *)(r10 - 48) = r7
     224:	7b 7a c8 ff 00 00 00 00	*(u64 *)(r10 - 56) = r7
     225:	7b 7a c0 ff 00 00 00 00	*(u64 *)(r10 - 64) = r7
     226:	7b 7a b8 ff 00 00 00 00	*(u64 *)(r10 - 72) = r7
     227:	7b 7a b0 ff 00 00 00 00	*(u64 *)(r10 - 80) = r7
     228:	7b 7a a8 ff 00 00 00 00	*(u64 *)(r10 - 88) = r7
     229:	7b 7a a0 ff 00 00 00 00	*(u64 *)(r10 - 96) = r7
     230:	7b 7a 98 ff 00 00 00 00	*(u64 *)(r10 - 104) = r7
     231:	7b 7a 90 ff 00 00 00 00	*(u64 *)(r10 - 112) = r7
     232:	7b 7a 88 ff 00 00 00 00	*(u64 *)(r10 - 120) = r7
     233:	7b 7a 80 ff 00 00 00 00	*(u64 *)(r10 - 128) = r7
     234:	7b 7a 78 ff 00 00 00 00	*(u64 *)(r10 - 136) = r7
     235:	7b 7a 70 ff 00 00 00 00	*(u64 *)(r10 - 144) = r7
     236:	7b 7a 68 ff 00 00 00 00	*(u64 *)(r10 - 152) = r7
     237:	7b 7a 60 ff 00 00 00 00	*(u64 *)(r10 - 160) = r7
     238:	7b 7a 58 ff 00 00 00 00	*(u64 *)(r10 - 168) = r7
     239:	7b 7a 50 ff 00 00 00 00	*(u64 *)(r10 - 176) = r7
     240:	7b 7a 48 ff 00 00 00 00	*(u64 *)(r10 - 184) = r7
     241:	7b 7a 40 ff 00 00 00 00	*(u64 *)(r10 - 192) = r7
     242:	7b 7a 38 ff 00 00 00 00	*(u64 *)(r10 - 200) = r7
     243:	7b 7a 30 ff 00 00 00 00	*(u64 *)(r10 - 208) = r7
     244:	7b 7a 28 ff 00 00 00 00	*(u64 *)(r10 - 216) = r7
     245:	7b 7a 20 ff 00 00 00 00	*(u64 *)(r10 - 224) = r7
     246:	7b 7a 18 ff 00 00 00 00	*(u64 *)(r10 - 232) = r7
     247:	7b 7a 10 ff 00 00 00 00	*(u64 *)(r10 - 240) = r7
     248:	7b 7a 08 ff 00 00 00 00	*(u64 *)(r10 - 248) = r7
     249:	7b 7a 00 ff 00 00 00 00	*(u64 *)(r10 - 256) = r7
     250:	7b 7a f8 fe 00 00 00 00	*(u64 *)(r10 - 264) = r7
     251:	7b 7a f0 fe 00 00 00 00	*(u64 *)(r10 - 272) = r7
     252:	7b 7a e8 fe 00 00 00 00	*(u64 *)(r10 - 280) = r7
     253:	7b 7a e0 fe 00 00 00 00	*(u64 *)(r10 - 288) = r7
     254:	79 01 28 00 00 00 00 00	r1 = *(u64 *)(r0 + 40)
     255:	61 02 24 00 00 00 00 00	r2 = *(u32 *)(r0 + 36)
     256:	55 02 58 00 0a 00 00 00	if r2 != 10 goto +88 <LBB0_52>
     257:	62 0a dc fe 00 00 00 00	<unknown>
     258:	7b 1a d0 fe 00 00 00 00	*(u64 *)(r10 - 304) = r1
     259:	05 00 00 00 00 00 00 00	goto +0 <LBB0_26+0x1a0>
     260:	15 01 06 00 00 00 00 00	if r1 == 0 goto +6 <LBB0_29>
     261:	bf a2 00 00 00 00 00 00	r2 = r10
     262:	07 02 00 00 d0 fe ff ff	r2 += -304
     263:	18 01 00 00 00 00 00 00 00 00 00 00 00 00 00 00	r1 = 0 ll
     265:	85 00 00 00 01 00 00 00	call 1
     266:	55 00 01 00 00 00 00 00	if r0 != 0 goto +1 <LBB0_34>

0000000000000858 <LBB0_29>:
     267:	05 00 5b 00 00 00 00 00	goto +91 <LBB0_55>

0000000000000860 <LBB0_34>:
     268:	bf a2 00 00 00 00 00 00	r2 = r10
     269:	07 02 00 00 dc fe ff ff	r2 += -292
     270:	bf 01 00 00 00 00 00 00	r1 = r0
     271:	85 00 00 00 01 00 00 00	call 1
     272:	7b 0a 40 fe 00 00 00 00	*(u64 *)(r10 - 448) = r0
     273:	05 00 00 00 00 00 00 00	goto +0 <LBB0_34+0x30>
     274:	15 00 54 00 00 00 00 00	if r0 == 0 goto +84 <LBB0_55>
     275:	62 0a dc fe 00 00 00 00	<unknown>
     276:	79 a0 40 fe 00 00 00 00	r0 = *(u64 *)(r10 - 448)
     277:	79 01 20 00 00 00 00 00	r1 = *(u64 *)(r0 + 32)
     278:	7b 1a d0 fe 00 00 00 00	*(u64 *)(r10 - 304) = r1
     279:	05 00 00 00 00 00 00 00	goto +0 <LBB0_34+0x60>
     280:	15 01 06 00 00 00 00 00	if r1 == 0 goto +6 <LBB0_37>
     281:	bf a2 00 00 00 00 00 00	r2 = r10
     282:	07 02 00 00 d0 fe ff ff	r2 += -304
     283:	18 01 00 00 00 00 00 00 00 00 00 00 00 00 00 00	r1 = 0 ll
     285:	85 00 00 00 01 00 00 00	call 1
     286:	55 00 01 00 00 00 00 00	if r0 != 0 goto +1 <LBB0_40>

00000000000008f8 <LBB0_37>:
     287:	05 00 47 00 00 00 00 00	goto +71 <LBB0_55>

0000000000000900 <LBB0_40>:
     288:	bf a2 00 00 00 00 00 00	r2 = r10
     289:	07 02 00 00 dc fe ff ff	r2 += -292
     290:	bf 01 00 00 00 00 00 00	r1 = r0
     291:	85 00 00 00 01 00 00 00	call 1
     292:	bf 09 00 00 00 00 00 00	r9 = r0
     293:	05 00 00 00 00 00 00 00	goto +0 <LBB0_40+0x30>
     294:	15 09 40 00 00 00 00 00	if r9 == 0 goto +64 <LBB0_55>
     295:	85 00 00 00 07 00 00 00	call 7
     296:	bf 08 00 00 00 00 00 00	r8 = r0
     297:	67 08 00 00 20 00 00 00	r8 <<= 32
     298:	77 08 00 00 20 00 00 00	r8 >>= 32
     299:	05 00 00 00 00 00 00 00	goto +0 <LBB0_40+0x60>
     300:	05 00 00 00 00 00 00 00	goto +0 <LBB0_40+0x68>
     301:	05 00 00 00 00 00 00 00	goto +0 <LBB0_40+0x70>
     302:	05 00 00 00 00 00 00 00	goto +0 <LBB0_40+0x78>
     303:	05 00 00 00 00 00 00 00	goto +0 <LBB0_40+0x80>
     304:	05 00 00 00 00 00 00 00	goto +0 <LBB0_40+0x88>
     305:	05 00 03 00 00 00 00 00	goto +3 <LBB0_43>

0000000000000990 <LBB0_42>:
     306:	07 06 00 00 01 00 00 00	r6 += 1
     307:	05 00 00 00 00 00 00 00	goto +0 <LBB0_42+0x10>
     308:	15 06 32 00 20 00 00 00	if r6 == 32 goto +50 <LBB0_55>

00000000000009a8 <LBB0_43>:
     309:	79 a1 40 fe 00 00 00 00	r1 = *(u64 *)(r10 - 448)
     310:	79 11 18 00 00 00 00 00	r1 = *(u64 *)(r1 + 24)
     311:	3d 16 2f 00 00 00 00 00	if r6 >= r1 goto +47 <LBB0_55>
     312:	79 91 00 00 00 00 00 00	r1 = *(u64 *)(r9 + 0)
     313:	63 7a dc fe 00 00 00 00	*(u32 *)(r10 - 292) = r7
     314:	7b 1a d0 fe 00 00 00 00	*(u64 *)(r10 - 304) = r1
     315:	15 01 06 00 00 00 00 00	if r1 == 0 goto +6 <LBB0_46>
     316:	05 00 00 00 00 00 00 00	goto +0 <LBB0_43+0x40>
     317:	05 00 00 00 00 00 00 00	goto +0 <LBB0_43+0x48>
     318:	18 01 00 00 00 00 00 00 00 00 00 00 00 00 00 00	r1 = 0 ll
     320:	85 00 00 00 01 00 00 00	call 1
     321:	55 00 01 00 00 00 00 00	if r0 != 0 goto +1 <LBB0_47>

0000000000000a10 <LBB0_46>:
     322:	05 00 24 00 00 00 00 00	goto +36 <LBB0_55>

0000000000000a18 <LBB0_47>:
     323:	bf a2 00 00 00 00 00 00	r2 = r10
     324:	07 02 00 00 dc fe ff ff	r2 += -292
     325:	bf 01 00 00 00 00 00 00	r1 = r0
     326:	85 00 00 00 01 00 00 00	call 1
     327:	15 00 1f 00 00 00 00 00	if r0 == 0 goto +31 <LBB0_55>
     328:	61 01 20 00 00 00 00 00	r1 = *(u32 *)(r0 + 32)
     329:	1f 18 00 00 00 00 00 00	r8 -= r1
     330:	67 08 00 00 20 00 00 00	r8 <<= 32
     331:	c7 08 00 00 20 00 00 00	r8 s>>= 32
     332:	65 08 e5 ff 00 00 00 00	if r8 s> 0 goto -27 <LBB0_42>
     333:	62 0a dc fe 00 00 00 00	<unknown>
     334:	79 01 18 00 00 00 00 00	r1 = *(u64 *)(r0 + 24)
     335:	7b 1a d0 fe 00 00 00 00	*(u64 *)(r10 - 304) = r1
     336:	05 00 00 00 00 00 00 00	goto +0 <LBB0_47+0x70>
     337:	15 01 15 00 00 00 00 00	if r1 == 0 goto +21 <LBB0_55>
     338:	05 00 00 00 00 00 00 00	goto +0 <LBB0_47+0x80>
     339:	05 00 00 00 00 00 00 00	goto +0 <LBB0_47+0x88>
     340:	18 01 00 00 00 00 00 00 00 00 00 00 00 00 00 00	r1 = 0 ll
     342:	85 00 00 00 01 00 00 00	call 1
     343:	15 00 0f 00 00 00 00 00	if r0 == 0 goto +15 <LBB0_55>
     344:	05 00 09 00 00 00 00 00	goto +9 <LBB0_54>

0000000000000ac8 <LBB0_52>:
     345:	63 7a dc fe 00 00 00 00	*(u32 *)(r10 - 292) = r7
     346:	7b 1a d0 fe 00 00 00 00	*(u64 *)(r10 - 304) = r1
     347:	15 01 0b 00 00 00 00 00	if r1 == 0 goto +11 <LBB0_55>
     348:	bf a2 00 00 00 00 00 00	r2 = r10
     349:	07 02 00 00 d0 fe ff ff	r2 += -304
     350:	18 01 00 00 00 00 00 00 00 00 00 00 00 00 00 00	r1 = 0 ll
     352:	85 00 00 00 01 00 00 00	call 1
     353:	15 00 05 00 00 00 00 00	if r0 == 0 goto +5 <LBB0_55>

0000000000000b10 <LBB0_54>:
     354:	bf a2 00 00 00 00 00 00	r2 = r10
     355:	07 02 00 00 dc fe ff ff	r2 += -292
     356:	bf 01 00 00 00 00 00 00	r1 = r0
     357:	85 00 00 00 01 00 00 00	call 1
     358:	05 00 00 00 00 00 00 00	goto +0 <LBB0_55>

0000000000000b38 <LBB0_55>:
     359:	61 a1 c8 fe 00 00 00 00	r1 = *(u32 *)(r10 - 312)
     360:	63 1a f0 ff 00 00 00 00	*(u32 *)(r10 - 16) = r1
     361:	79 a1 c0 fe 00 00 00 00	r1 = *(u64 *)(r10 - 320)
     362:	7b 1a e8 ff 00 00 00 00	*(u64 *)(r10 - 24) = r1
     363:	79 a1 b8 fe 00 00 00 00	r1 = *(u64 *)(r10 - 328)
     364:	7b 1a e0 ff 00 00 00 00	*(u64 *)(r10 - 32) = r1
     365:	62 0a fc ff 00 00 00 00	<unknown>
     366:	79 a0 b0 fe 00 00 00 00	r0 = *(u64 *)(r10 - 336)
     367:	7b 0a d8 ff 00 00 00 00	*(u64 *)(r10 - 40) = r0
     368:	79 a1 48 fe 00 00 00 00	r1 = *(u64 *)(r10 - 440)
     369:	63 1a f8 ff 00 00 00 00	*(u32 *)(r10 - 8) = r1
     370:	79 a1 50 fe 00 00 00 00	r1 = *(u64 *)(r10 - 432)
     371:	63 1a f4 ff 00 00 00 00	*(u32 *)(r10 - 12) = r1
     372:	05 00 00 00 00 00 00 00	goto +0 <LBB0_55+0x70>
     373:	85 00 00 00 23 00 00 00	call 35
     374:	07 00 00 00 05 00 00 00	r0 += 5
     375:	7b 0a d0 ff 00 00 00 00	*(u64 *)(r10 - 48) = r0
     376:	bf a1 00 00 00 00 00 00	r1 = r10
     377:	07 01 00 00 e0 fe ff ff	r1 += -288
     378:	b7 02 00 00 e2 00 00 00	r2 = 226
     379:	bf 73 00 00 00 00 00 00	r3 = r7
     380:	85 00 00 00 ab 00 00 00	call 171
     381:	55 00 06 00 00 00 00 00	if r0 != 0 goto +6 <LBB0_57>
     382:	18 01 00 00 93 01 00 00 00 00 00 00 00 00 00 00	r1 = 403 ll
     384:	b7 02 00 00 29 00 00 00	r2 = 41
     385:	bf 73 00 00 00 00 00 00	r3 = r7
     386:	85 00 00 00 06 00 00 00	call 6
     387:	05 00 ae fe 00 00 00 00	goto -338 <LBB0_9>

0000000000000c20 <LBB0_57>:
     388:	05 00 00 00 00 00 00 00	goto +0 <LBB0_57+0x8>
     389:	05 00 00 00 00 00 00 00	goto +0 <LBB0_57+0x10>
     390:	05 00 00 00 00 00 00 00	goto +0 <LBB0_57+0x18>
     391:	05 00 00 00 00 00 00 00	goto +0 <LBB0_57+0x20>
     392:	18 01 00 00 00 00 00 00 00 00 00 00 00 00 00 00	r1 = 0 ll
     394:	b7 04 00 00 00 00 00 00	r4 = 0
     395:	85 00 00 00 02 00 00 00	call 2
     396:	67 00 00 00 20 00 00 00	r0 <<= 32
     397:	77 00 00 00 20 00 00 00	r0 >>= 32
     398:	55 00 a3 fe 00 00 00 00	if r0 != 0 goto -349 <LBB0_9>
     399:	05 00 00 00 00 00 00 00	goto +0 <LBB0_57+0x60>
     400:	18 02 00 00 00 00 00 00 00 00 00 00 00 00 00 00	r2 = 0 ll
     402:	05 00 00 00 00 00 00 00	goto +0 <LBB0_59>

0000000000000c98 <LBB0_59>:
     403:	85 00 00 00 0c 00 00 00	call 12
     404:	05 00 00 00 00 00 00 00	goto +0 <LBB0_59+0x10>
     405:	05 00 00 00 00 00 00 00	goto +0 <LBB0_59+0x18>
     406:	18 01 00 00 00 00 00 00 00 00 00 00 00 00 00 00	r1 = 0 ll
     408:	85 00 00 00 03 00 00 00	call 3
     409:	05 00 98 fe 00 00 00 00	goto -360 <LBB0_9>

Disassembly of section sockops/KMESH_TAIL_CALL_FILTER_CHAIN:

0000000000000000 <filter_chain_manager>:
       0:	bf 16 00 00 00 00 00 00	r6 = r1
       1:	b7 09 00 00 00 00 00 00	r9 = 0
       2:	7b 9a b8 ff 00 00 00 00	*(u64 *)(r10 - 72) = r9
       3:	7b 9a b0 ff 00 00 00 00	*(u64 *)(r10 - 80) = r9
       4:	7b 9a a8 ff 00 00 00 00	*(u64 *)(r10 - 88) = r9
       5:	7b 9a a0 ff 00 00 00 00	*(u64 *)(r10 - 96) = r9
       6:	7b 9a 98 ff 00 00 00 00	*(u64 *)(r10 - 104) = r9
       7:	7b 9a 90 ff 00 00 00 00	*(u64 *)(r10 - 112) = r9
       8:	7b 9a 88 ff 00 00 00 00	*(u64 *)(r10 - 120) = r9
       9:	7b 9a 80 ff 00 00 00 00	*(u64 *)(r10 - 128) = r9
      10:	7b 9a 78 ff 00 00 00 00	*(u64 *)(r10 - 136) = r9
      11:	7b 9a 70 ff 00 00 00 00	*(u64 *)(r10 - 144) = r9
      12:	7b 9a 68 ff 00 00 00 00	*(u64 *)(r10 - 152) = r9
      13:	7b 9a 60 ff 00 00 00 00	*(u64 *)(r10 - 160) = r9
      14:	7b 9a 58 ff 00 00 00 00	*(u64 *)(r10 - 168) = r9
      15:	7b 9a 50 ff 00 00 00 00	*(u64 *)(r10 - 176) = r9
      16:	7b 9a 48 ff 00 00 00 00	*(u64 *)(r10 - 184) = r9
      17:	7b 9a 40 ff 00 00 00 00	*(u64 *)(r10 - 192) = r9
      18:	7b 9a 38 ff 00 00 00 00	*(u64 *)(r10 - 200) = r9
      19:	7b 9a 30 ff 00 00 00 00	*(u64 *)(r10 - 208) = r9
      20:	7b 9a 28 ff 00 00 00 00	*(u64 *)(r10 - 216) = r9
      21:	7b 9a 20 ff 00 00 00 00	*(u64 *)(r10 - 224) = r9
      22:	7b 9a 18 ff 00 00 00 00	*(u64 *)(r10 - 232) = r9
      23:	7b 9a 10 ff 00 00 00 00	*(u64 *)(r10 - 240) = r9
      24:	7b 9a 08 ff 00 00 00 00	*(u64 *)(r10 - 248) = r9
      25:	7b 9a 00 ff 00 00 00 00	*(u64 *)(r10 - 256) = r9
      26:	7b 9a f8 fe 00 00 00 00	*(u64 *)(r10 - 264) = r9
      27:	7b 9a f0 fe 00 00 00 00	*(u64 *)(r10 - 272) = r9
      28:	7b 9a e8 fe 00 00 00 00	*(u64 *)(r10 - 280) = r9
      29:	7b 9a e0 fe 00 00 00 00	*(u64 *)(r10 - 288) = r9
      30:	7b 9a d8 fe 00 00 00 00	*(u64 *)(r10 - 296) = r9
      31:	7b 9a d0 fe 00 00 00 00	*(u64 *)(r10 - 304) = r9
      32:	63 9a c8 fe 00 00 00 00	*(u32 *)(r10 - 312) = r9
      33:	7b 9a c0 fe 00 00 00 00	*(u64 *)(r10 - 320) = r9
      34:	7b 9a b8 fe 00 00 00 00	*(u64 *)(r10 - 328) = r9
      35:	7b 9a b0 fe 00 00 00 00	*(u64 *)(r10 - 336) = r9
      36:	61 61 40 00 00 00 00 00	r1 = *(u32 *)(r6 + 64)
      37:	61 67 18 00 00 00 00 00	r7 = *(u32 *)(r6 + 24)
      38:	63 9a e0 ff 00 00 00 00	*(u32 *)(r10 - 32) = r9
      39:	7b 9a d8 ff 00 00 00 00	*(u64 *)(r10 - 40) = r9
      40:	7a 0a c8 ff 00 00 00 00	<unknown>
      41:	7a 0a d0 ff 00 00 00 00	<unknown>
      42:	7b 7a e8 ff 00 00 00 00	*(u64 *)(r10 - 24) = r7
      43:	7b 1a a8 fe 00 00 00 00	*(u64 *)(r10 - 344) = r1
      44:	63 1a e4 ff 00 00 00 00	*(u32 *)(r10 - 28) = r1
      45:	05 00 00 00 00 00 00 00	goto +0 <filter_chain_manager+0x170>
      46:	85 00 00 00 23 00 00 00	call 35
      47:	07 00 00 00 02 00 00 00	r0 += 2
      48:	7b 0a c0 ff 00 00 00 00	*(u64 *)(r10 - 64) = r0
      49:	bf a2 00 00 00 00 00 00	r2 = r10
      50:	07 02 00 00 c0 ff ff ff	r2 += -64
      51:	18 01 00 00 00 00 00 00 00 00 00 00 00 00 00 00	r1 = 0 ll
      53:	85 00 00 00 01 00 00 00	call 1
      54:	bf 08 00 00 00 00 00 00	r8 = r0
      55:	55 08 05 00 00 00 00 00	if r8 != 0 goto +5 <LBB1_2>
      56:	18 01 00 00 9a 00 00 00 00 00 00 00 00 00 00 00	r1 = 154 ll
      58:	b7 02 00 00 2e 00 00 00	r2 = 46
      59:	85 00 00 00 06 00 00 00	call 6
      60:	05 00 a7 00 00 00 00 00	goto +167 <LBB1_35>

00000000000001e8 <LBB1_2>:
      61:	bf a2 00 00 00 00 00 00	r2 = r10
      62:	07 02 00 00 c0 ff ff ff	r2 += -64
      63:	18 01 00 00 00 00 00 00 00 00 00 00 00 00 00 00	r1 = 0 ll
      65:	85 00 00 00 03 00 00 00	call 3
      66:	79 81 00 00 00 00 00 00	r1 = *(u64 *)(r8 + 0)
      67:	63 9a fc ff 00 00 00 00	*(u32 *)(r10 - 4) = r9
      68:	7b 1a f0 ff 00 00 00 00	*(u64 *)(r10 - 16) = r1
      69:	15 01 06 00 00 00 00 00	if r1 == 0 goto +6 <LBB1_4>
      70:	bf a2 00 00 00 00 00 00	r2 = r10
      71:	07 02 00 00 f0 ff ff ff	r2 += -16
      72:	18 01 00 00 00 00 00 00 00 00 00 00 00 00 00 00	r1 = 0 ll
      74:	85 00 00 00 01 00 00 00	call 1
      75:	55 00 01 00 00 00 00 00	if r0 != 0 goto +1 <LBB1_5>

0000000000000260 <LBB1_4>:
      76:	05 00 97 00 00 00 00 00	goto +151 <LBB1_35>

0000000000000268 <LBB1_5>:
      77:	bf a2 00 00 00 00 00 00	r2 = r10
      78:	07 02 00 00 fc ff ff ff	r2 += -4
      79:	bf 01 00 00 00 00 00 00	r1 = r0
      80:	85 00 00 00 01 00 00 00	call 1
      81:	bf 09 00 00 00 00 00 00	r9 = r0
      82:	15 09 91 00 00 00 00 00	if r9 == 0 goto +145 <LBB1_35>
      83:	79 93 20 00 00 00 00 00	r3 = *(u64 *)(r9 + 32)
      84:	bf 31 00 00 00 00 00 00	r1 = r3
      85:	07 01 00 00 ff ff ff ff	r1 += -1
      86:	b7 02 00 00 04 00 00 00	r2 = 4
      87:	2d 12 05 00 00 00 00 00	if r2 > r1 goto +5 <LBB1_8>
      88:	18 01 00 00 bc 01 00 00 00 00 00 00 00 00 00 00	r1 = 444 ll
      90:	b7 02 00 00 2c 00 00 00	r2 = 44
      91:	85 00 00 00 06 00 00 00	call 6
      92:	05 00 82 00 00 00 00 00	goto +130 <LBB1_33>

00000000000002e8 <LBB1_8>:
      93:	62 0a fc ff 00 00 00 00	<unknown>
      94:	79 91 28 00 00 00 00 00	r1 = *(u64 *)(r9 + 40)
      95:	7b 1a f0 ff 00 00 00 00	*(u64 *)(r10 - 16) = r1
      96:	05 00 00 00 00 00 00 00	goto +0 <LBB1_8+0x20>
      97:	15 01 06 00 00 00 00 00	if r1 == 0 goto +6 <LBB1_10>
      98:	bf a2 00 00 00 00 00 00	r2 = r10
      99:	07 02 00 00 f0 ff ff ff	r2 += -16
     100:	18 01 00 00 00 00 00 00 00 00 00 00 00 00 00 00	r1 = 0 ll
     102:	85 00 00 00 01 00 00 00	call 1
     103:	55 00 05 00 00 00 00 00	if r0 != 0 goto +5 <LBB1_11>

0000000000000340 <LBB1_10>:
     104:	18 01 00 00 e8 01 00 00 00 00 00 00 00 00 00 00	r1 = 488 ll
     106:	b7 02 00 00 29 00 00 00	r2 = 41
     107:	85 00 00 00 06 00 00 00	call 6
     108:	05 00 72 00 00 00 00 00	goto +114 <LBB1_33>

0000000000000368 <LBB1_11>:
     109:	7b 9a a0 fe 00 00 00 00	*(u64 *)(r10 - 352) = r9
     110:	bf a2 00 00 00 00 00 00	r2 = r10
     111:	07 02 00 00 fc ff ff ff	r2 += -4
     112:	bf 01 00 00 00 00 00 00	r1 = r0
     113:	85 00 00 00 01 00 00 00	call 1
     114:	bf 09 00 00 00 00 00 00	r9 = r0
     115:	15 09 f4 ff 00 00 00 00	if r9 == 0 goto -12 <LBB1_10>
     116:	79 a1 a0 fe 00 00 00 00	r1 = *(u64 *)(r10 - 352)
     117:	79 11 20 00 00 00 00 00	r1 = *(u64 *)(r1 + 32)
     118:	15 01 68 00 00 00 00 00	if r1 == 0 goto +104 <LBB1_33>
     119:	62 0a fc ff 00 00 00 00	<unknown>
     120:	79 91 00 00 00 00 00 00	r1 = *(u64 *)(r9 + 0)
     121:	7b 1a f0 ff 00 00 00 00	*(u64 *)(r10 - 16) = r1
     122:	05 00 00 00 00 00 00 00	goto +0 <LBB1_11+0x70>
     123:	15 01 06 00 00 00 00 00	if r1 == 0 goto +6 <LBB1_15>
     124:	bf a2 00 00 00 00 00 00	r2 = r10
     125:	07 02 00 00 f0 ff ff ff	r2 += -16
     126:	18 01 00 00 00 00 00 00 00 00 00 00 00 00 00 00	r1 = 0 ll
     128:	85 00 00 00 01 00 00 00	call 1
     129:	55 00 01 00 00 00 00 00	if r0 != 0 goto +1 <LBB1_16>

0000000000000410 <LBB1_15>:
     130:	05 00 0b 00 00 00 00 00	goto +11 <LBB1_18>

0000000000000418 <LBB1_16>:
     131:	bf a2 00 00 00 00 00 00	r2 = r10
     132:	07 02 00 00 fc ff ff ff	r2 += -4
     133:	bf 01 00 00 00 00 00 00	r1 = r0
     134:	85 00 00 00 01 00 00 00	call 1
     135:	15 00 06 00 00 00 00 00	if r0 == 0 goto +6 <LBB1_18>
     136:	61 02 20 00 00 00 00 00	r2 = *(u32 *)(r0 + 32)
     137:	18 01 00 00 fe ff ff ff 00 00 00 00 00 00 00 00	r1 = 4294967294 ll
     139:	5f 12 00 00 00 00 00 00	r2 &= r1
     140:	bf 91 00 00 00 00 00 00	r1 = r9
     141:	15 02 58 00 02 00 00 00	if r2 == 2 goto +88 <LBB1_36>

0000000000000470 <LBB1_18>:
     142:	79 a1 a0 fe 00 00 00 00	r1 = *(u64 *)(r10 - 352)
     143:	79 11 20 00 00 00 00 00	r1 = *(u64 *)(r1 + 32)
     144:	b7 02 00 00 02 00 00 00	r2 = 2
     145:	2d 12 4d 00 00 00 00 00	if r2 > r1 goto +77 <LBB1_33>
     146:	62 0a fc ff 00 00 00 00	<unknown>
     147:	79 91 08 00 00 00 00 00	r1 = *(u64 *)(r9 + 8)
     148:	7b 1a f0 ff 00 00 00 00	*(u64 *)(r10 - 16) = r1
     149:	05 00 00 00 00 00 00 00	goto +0 <LBB1_18+0x40>
     150:	15 01 12 00 00 00 00 00	if r1 == 0 goto +18 <LBB1_23>
     151:	bf a2 00 00 00 00 00 00	r2 = r10
     152:	07 02 00 00 f0 ff ff ff	r2 += -16
     153:	18 01 00 00 00 00 00 00 00 00 00 00 00 00 00 00	r1 = 0 ll
     155:	85 00 00 00 01 00 00 00	call 1
     156:	15 00 0c 00 00 00 00 00	if r0 == 0 goto +12 <LBB1_23>
     157:	bf a2 00 00 00 00 00 00	r2 = r10
     158:	07 02 00 00 fc ff ff ff	r2 += -4
     159:	bf 01 00 00 00 00 00 00	r1 = r0
     160:	85 00 00 00 01 00 00 00	call 1
     161:	15 00 07 00 00 00 00 00	if r0 == 0 goto +7 <LBB1_23>
     162:	bf 91 00 00 00 00 00 00	r1 = r9
     163:	07 01 00 00 08 00 00 00	r1 += 8
     164:	61 02 20 00 00 00 00 00	r2 = *(u32 *)(r0 + 32)
     165:	18 03 00 00 fe ff ff ff 00 00 00 00 00 00 00 00	r3 = 4294967294 ll
     167:	5f 32 00 00 00 00 00 00	r2 &= r3
     168:	15 02 3d 00 02 00 00 00	if r2 == 2 goto +61 <LBB1_36>

0000000000000548 <LBB1_23>:
     169:	79 a1 a0 fe 00 00 00 00	r1 = *(u64 *)(r10 - 352)
     170:	79 11 20 00 00 00 00 00	r1 = *(u64 *)(r1 + 32)
     171:	b7 02 00 00 03 00 00 00	r2 = 3
     172:	2d 12 32 00 00 00 00 00	if r2 > r1 goto +50 <LBB1_33>
     173:	62 0a fc ff 00 00 00 00	<unknown>
     174:	79 91 10 00 00 00 00 00	r1 = *(u64 *)(r9 + 16)
     175:	7b 1a f0 ff 00 00 00 00	*(u64 *)(r10 - 16) = r1
     176:	05 00 00 00 00 00 00 00	goto +0 <LBB1_23+0x40>
     177:	15 01 12 00 00 00 00 00	if r1 == 0 goto +18 <LBB1_28>
     178:	bf a2 00 00 00 00 00 00	r2 = r10
     179:	07 02 00 00 f0 ff ff ff	r2 += -16
     180:	18 01 00 00 00 00 00 00 00 00 00 00 00 00 00 00	r1 = 0 ll
     182:	85 00 00 00 01 00 00 00	call 1
     183:	15 00 0c 00 00 00 00 00	if r0 == 0 goto +12 <LBB1_28>
     184:	bf a2 00 00 00 00 00 00	r2 = r10
     185:	07 02 00 00 fc ff ff ff	r2 += -4
     186:	bf 01 00 00 00 00 00 00	r1 = r0
     187:	85 00 00 00 01 00 00 00	call 1
     188:	15 00 07 00 00 00 00 00	if r0 == 0 goto +7 <LBB1_28>
     189:	bf 91 00 00 00 00 00 00	r1 = r9
     190:	07 01 00 00 10 00 00 00	r1 += 16
     191:	61 02 20 00 00 00 00 00	r2 = *(u32 *)(r0 + 32)
     192:	18 03 00 00 fe ff ff ff 00 00 00 00 00 00 00 00	r3 = 4294967294 ll
     194:	5f 32 00 00 00 00 00 00	r2 &= r3
     195:	15 02 22 00 02 00 00 00	if r2 == 2 goto +34 <LBB1_36>

0000000000000620 <LBB1_28>:
     196:	79 a1 a0 fe 00 00 00 00	r1 = *(u64 *)(r10 - 352)
     197:	79 11 20 00 00 00 00 00	r1 = *(u64 *)(r1 + 32)
     198:	b7 02 00 00 04 00 00 00	r2 = 4
     199:	2d 12 17 00 00 00 00 00	if r2 > r1 goto +23 <LBB1_33>
     200:	62 0a fc ff 00 00 00 00	<unknown>
     201:	79 91 18 00 00 00 00 00	r1 = *(u64 *)(r9 + 24)
     202:	7b 1a f0 ff 00 00 00 00	*(u64 *)(r10 - 16) = r1
     203:	05 00 00 00 00 00 00 00	goto +0 <LBB1_28+0x40>
     204:	15 01 12 00 00 00 00 00	if r1 == 0 goto +18 <LBB1_33>
     205:	bf a2 00 00 00 00 00 00	r2 = r10
     206:	07 02 00 00 f0 ff ff ff	r2 += -16
     207:	18 01 00 00 00 00 00 00 00 00 00 00 00 00 00 00	r1 = 0 ll
     209:	85 00 00 00 01 00 00 00	call 1
     210:	15 00 0c 00 00 00 00 00	if r0 == 0 goto +12 <LBB1_33>
     211:	bf a2 00 00 00 00 00 00	r2 = r10
     212:	07 02 00 00 fc ff ff ff	r2 += -4
     213:	bf 01 00 00 00 00 00 00	r1 = r0
     214:	85 00 00 00 01 00 00 00	call 1
     215:	15 00 07 00 00 00 00 00	if r0 == 0 goto +7 <LBB1_33>
     216:	07 09 00 00 18 00 00 00	r9 += 24
     217:	61 02 20 00 00 00 00 00	r2 = *(u32 *)(r0 + 32)
     218:	18 01 00 00 fe ff ff ff 00 00 00 00 00 00 00 00	r1 = 4294967294 ll
     220:	5f 12 00 00 00 00 00 00	r2 &= r1
     221:	bf 91 00 00 00 00 00 00	r1 = r9
     222:	15 02 07 00 02 00 00 00	if r2 == 2 goto +7 <LBB1_36>

00000000000006f8 <LBB1_33>:
     223:	18 01 00 00 c8 00 00 00 00 00 00 00 00 00 00 00	r1 = 200 ll
     225:	b7 02 00 00 2d 00 00 00	r2 = 45
     226:	bf 73 00 00 00 00 00 00	r3 = r7

0000000000000718 <LBB1_34>:
     227:	85 00 00 00 06 00 00 00	call 6

0000000000000720 <LBB1_35>:
     228:	b7 00 00 00 00 00 00 00	r0 = 0
     229:	95 00 00 00 00 00 00 00	exit

0000000000000730 <LBB1_36>:
     230:	bf a2 00 00 00 00 00 00	r2 = r10
     231:	07 02 00 00 c8 ff ff ff	r2 += -56
     232:	79 19 00 00 00 00 00 00	r9 = *(u64 *)(r1 + 0)
     233:	61 a1 c8 fe 00 00 00 00	r1 = *(u32 *)(r10 - 312)
     234:	63 12 18 00 00 00 00 00	*(u32 *)(r2 + 24) = r1
     235:	79 a1 c0 fe 00 00 00 00	r1 = *(u64 *)(r10 - 320)
     236:	7b 12 10 00 00 00 00 00	*(u64 *)(r2 + 16) = r1
     237:	79 a1 b8 fe 00 00 00 00	r1 = *(u64 *)(r10 - 328)
     238:	7b 12 08 00 00 00 00 00	*(u64 *)(r2 + 8) = r1
     239:	79 a1 b0 fe 00 00 00 00	r1 = *(u64 *)(r10 - 336)
     240:	7b 12 00 00 00 00 00 00	*(u64 *)(r2 + 0) = r1
     241:	63 7a e8 ff 00 00 00 00	*(u32 *)(r10 - 24) = r7
     242:	62 0a ec ff 00 00 00 00	<unknown>
     243:	79 a0 a8 fe 00 00 00 00	r0 = *(u64 *)(r10 - 344)
     244:	63 0a e4 ff 00 00 00 00	*(u32 *)(r10 - 28) = r0
     245:	05 00 00 00 00 00 00 00	goto +0 <LBB1_36+0x80>
     246:	85 00 00 00 23 00 00 00	call 35
     247:	7b 9a d0 fe 00 00 00 00	*(u64 *)(r10 - 304) = r9
     248:	07 00 00 00 03 00 00 00	r0 += 3
     249:	7b 0a c0 ff 00 00 00 00	*(u64 *)(r10 - 64) = r0
     250:	79 81 e8 00 00 00 00 00	r1 = *(u64 *)(r8 + 232)
     251:	7b 1a b8 ff 00 00 00 00	*(u64 *)(r10 - 72) = r1
     252:	bf a2 00 00 00 00 00 00	r2 = r10
     253:	07 02 00 00 c0 ff ff ff	r2 += -64
     254:	bf a3 00 00 00 00 00 00	r3 = r10
     255:	07 03 00 00 d0 fe ff ff	r3 += -304
     256:	18 01 00 00 00 00 00 00 00 00 00 00 00 00 00 00	r1 = 0 ll
     258:	b7 04 00 00 00 00 00 00	r4 = 0
     259:	85 00 00 00 02 00 00 00	call 2
     260:	bf 01 00 00 00 00 00 00	r1 = r0
     261:	67 01 00 00 20 00 00 00	r1 <<= 32
     262:	77 01 00 00 20 00 00 00	r1 >>= 32
     263:	15 01 05 00 00 00 00 00	if r1 == 0 goto +5 <LBB1_38>
     264:	18 01 00 00 f5 00 00 00 00 00 00 00 00 00 00 00	r1 = 245 ll
     266:	b7 02 00 00 34 00 00 00	r2 = 52
     267:	bf 03 00 00 00 00 00 00	r3 = r0
     268:	05 00 d6 ff 00 00 00 00	goto -42 <LBB1_34>

0000000000000868 <LBB1_38>:
     269:	bf 61 00 00 00 00 00 00	r1 = r6
     270:	18 02 00 00 00 00 00 00 00 00 00 00 00 00 00 00	r2 = 0 ll
     272:	b7 03 00 00 03 00 00 00	r3 = 3
     273:	85 00 00 00 0c 00 00 00	call 12
     274:	bf a2 00 00 00 00 00 00	r2 = r10
     275:	07 02 00 00 c0 ff ff ff	r2 += -64
     276:	18 01 00 00 00 00 00 00 00 00 00 00 00 00 00 00	r1 = 0 ll
     278:	85 00 00 00 03 00 00 00	call 3
     279:	05 00 cc ff 00 00 00 00	goto -52 <LBB1_35>
